; Function Attrs: null_pointer_is_valid sspstrong uwtable
define internal void @ldapstat_init(ptr readnone captures(none) %0, ptr noundef %1) #0 {
  %3 = tail call ptr @init_srt_table(ptr noundef nonnull @.str.952, ptr noundef null, ptr noundef %1, i32 noundef 24, ptr noundef null, ptr noundef nonnull @.str.196, ptr noundef null)
  br label %4

4:                                                ; preds = %2, %4
  %.05 = phi i32 [ 0, %2 ], [ %6, %4 ]
  %5 = tail call ptr @val_to_str_const(i32 noundef %.05, ptr noundef nonnull @ldap_procedure_names, ptr noundef nonnull @.str.953)
  tail call void @init_srt_table_row(ptr noundef %3, i32 noundef %.05, ptr noundef %5)
  %6 = add nuw nsw i32 %.05, 1
  %exitcond.not = icmp eq i32 %6, 24
  br i1 %exitcond.not, label %7, label %4, !llvm.loop !11

7:                                                ; preds = %4
  ret void
}